
avrhidmouse.elf:     file format elf32-avr

Sections:
Idx Name          Size      VMA       LMA       File off  Algn
  0 .text         000004ba  00000000  00000000  00000074  2**1
                  CONTENTS, ALLOC, LOAD, READONLY, CODE
  1 .data         00000016  00800060  000004ba  0000052e  2**0
                  CONTENTS, ALLOC, LOAD, DATA
  2 .bss          00000004  00800076  000004d0  00000544  2**0
                  ALLOC
  3 .debug_aranges 00000020  00000000  00000000  00000544  2**0
                  CONTENTS, READONLY, DEBUGGING
  4 .debug_pubnames 000000a6  00000000  00000000  00000564  2**0
                  CONTENTS, READONLY, DEBUGGING
  5 .debug_info   00000ade  00000000  00000000  0000060a  2**0
                  CONTENTS, READONLY, DEBUGGING
  6 .debug_abbrev 000001ee  00000000  00000000  000010e8  2**0
                  CONTENTS, READONLY, DEBUGGING
  7 .debug_line   000007e3  00000000  00000000  000012d6  2**0
                  CONTENTS, READONLY, DEBUGGING
  8 .debug_frame  000000a0  00000000  00000000  00001abc  2**2
                  CONTENTS, READONLY, DEBUGGING
  9 .debug_str    00000173  00000000  00000000  00001b5c  2**0
                  CONTENTS, READONLY, DEBUGGING
 10 .debug_loc    0000046e  00000000  00000000  00001ccf  2**0
                  CONTENTS, READONLY, DEBUGGING
 11 .debug_ranges 000000a8  00000000  00000000  0000213d  2**0
                  CONTENTS, READONLY, DEBUGGING
Disassembly of section .text:

00000000 <__vectors>:
   0:	0c 94 2a 00 	jmp	0x54	; 0x54 <__ctors_end>
   4:	0c 94 47 00 	jmp	0x8e	; 0x8e <__bad_interrupt>
   8:	0c 94 47 00 	jmp	0x8e	; 0x8e <__bad_interrupt>
   c:	0c 94 47 00 	jmp	0x8e	; 0x8e <__bad_interrupt>
  10:	0c 94 47 00 	jmp	0x8e	; 0x8e <__bad_interrupt>
  14:	0c 94 47 00 	jmp	0x8e	; 0x8e <__bad_interrupt>
  18:	0c 94 47 00 	jmp	0x8e	; 0x8e <__bad_interrupt>
  1c:	0c 94 47 00 	jmp	0x8e	; 0x8e <__bad_interrupt>
  20:	0c 94 47 00 	jmp	0x8e	; 0x8e <__bad_interrupt>
  24:	0c 94 47 00 	jmp	0x8e	; 0x8e <__bad_interrupt>
  28:	0c 94 47 00 	jmp	0x8e	; 0x8e <__bad_interrupt>
  2c:	0c 94 47 00 	jmp	0x8e	; 0x8e <__bad_interrupt>
  30:	0c 94 47 00 	jmp	0x8e	; 0x8e <__bad_interrupt>
  34:	0c 94 47 00 	jmp	0x8e	; 0x8e <__bad_interrupt>
  38:	0c 94 47 00 	jmp	0x8e	; 0x8e <__bad_interrupt>
  3c:	0c 94 47 00 	jmp	0x8e	; 0x8e <__bad_interrupt>
  40:	0c 94 47 00 	jmp	0x8e	; 0x8e <__bad_interrupt>
  44:	0c 94 47 00 	jmp	0x8e	; 0x8e <__bad_interrupt>
  48:	0c 94 47 00 	jmp	0x8e	; 0x8e <__bad_interrupt>
  4c:	0c 94 47 00 	jmp	0x8e	; 0x8e <__bad_interrupt>
  50:	0c 94 47 00 	jmp	0x8e	; 0x8e <__bad_interrupt>

00000054 <__ctors_end>:
  54:	11 24       	eor	r1, r1
  56:	1f be       	out	0x3f, r1	; 63
  58:	cf e5       	ldi	r28, 0x5F	; 95
  5a:	d4 e0       	ldi	r29, 0x04	; 4
  5c:	de bf       	out	0x3e, r29	; 62
  5e:	cd bf       	out	0x3d, r28	; 61

00000060 <__do_copy_data>:
  60:	10 e0       	ldi	r17, 0x00	; 0
  62:	a0 e6       	ldi	r26, 0x60	; 96
  64:	b0 e0       	ldi	r27, 0x00	; 0
  66:	ea eb       	ldi	r30, 0xBA	; 186
  68:	f4 e0       	ldi	r31, 0x04	; 4
  6a:	02 c0       	rjmp	.+4      	; 0x70 <.do_copy_data_start>

0000006c <.do_copy_data_loop>:
  6c:	05 90       	lpm	r0, Z+
  6e:	0d 92       	st	X+, r0

00000070 <.do_copy_data_start>:
  70:	a6 37       	cpi	r26, 0x76	; 118
  72:	b1 07       	cpc	r27, r17
  74:	d9 f7       	brne	.-10     	; 0x6c <.do_copy_data_loop>

00000076 <__do_clear_bss>:
  76:	10 e0       	ldi	r17, 0x00	; 0
  78:	a6 e7       	ldi	r26, 0x76	; 118
  7a:	b0 e0       	ldi	r27, 0x00	; 0
  7c:	01 c0       	rjmp	.+2      	; 0x80 <.do_clear_bss_start>

0000007e <.do_clear_bss_loop>:
  7e:	1d 92       	st	X+, r1

00000080 <.do_clear_bss_start>:
  80:	aa 37       	cpi	r26, 0x7A	; 122
  82:	b1 07       	cpc	r27, r17
  84:	e1 f7       	brne	.-8      	; 0x7e <.do_clear_bss_loop>
  86:	0e 94 4a 01 	call	0x294	; 0x294 <main>
  8a:	0c 94 5b 02 	jmp	0x4b6	; 0x4b6 <_exit>

0000008e <__bad_interrupt>:
  8e:	0c 94 00 00 	jmp	0	; 0x0 <__heap_end>

00000092 <LCDBusyLoop>:

LCDBusyLoop();
}

void LCDBusyLoop()
{
  92:	87 b3       	in	r24, 0x17	; 23
  94:	80 7f       	andi	r24, 0xF0	; 240
  96:	87 bb       	out	0x17, r24	; 23

	//Change Port to input type because we are reading data
	LCD_DATA_DDR&=0xF0;

	//change LCD mode
	SET_RW();		//Read mode
  98:	c5 9a       	sbi	0x18, 5	; 24
	CLEAR_RS();		//Read status
  9a:	c4 98       	cbi	0x18, 4	; 24
    can be achieved.
*/
void
_delay_loop_1(uint8_t __count)
{
	__asm__ volatile (
  9c:	81 e0       	ldi	r24, 0x01	; 1
  9e:	8a 95       	dec	r24
  a0:	f1 f7       	brne	.-4      	; 0x9e <LCDBusyLoop+0xc>

	
	do
	{

		SET_E();
  a2:	21 e0       	ldi	r18, 0x01	; 1
  a4:	c6 9a       	sbi	0x18, 6	; 24
  a6:	82 2f       	mov	r24, r18
  a8:	8a 95       	dec	r24
  aa:	f1 f7       	brne	.-4      	; 0xa8 <LCDBusyLoop+0x16>

		//Wait tDA for data to become available
		_delay_us(0.5);

		status=LCD_DATA_PIN;
  ac:	86 b3       	in	r24, 0x16	; 22
		status=status<<4;
  ae:	82 95       	swap	r24
  b0:	80 7f       	andi	r24, 0xF0	; 240
  b2:	92 2f       	mov	r25, r18
  b4:	9a 95       	dec	r25
  b6:	f1 f7       	brne	.-4      	; 0xb4 <LCDBusyLoop+0x22>

		_delay_us(0.5);

		//Pull E low
		CLEAR_E();
  b8:	c6 98       	cbi	0x18, 6	; 24
  ba:	92 2f       	mov	r25, r18
  bc:	9a 95       	dec	r25
  be:	f1 f7       	brne	.-4      	; 0xbc <LCDBusyLoop+0x2a>
		_delay_us(1);	//tEL

		SET_E();
  c0:	c6 9a       	sbi	0x18, 6	; 24
  c2:	92 2f       	mov	r25, r18
  c4:	9a 95       	dec	r25
  c6:	f1 f7       	brne	.-4      	; 0xc4 <LCDBusyLoop+0x32>
		_delay_us(0.5);

		temp=LCD_DATA_PIN;
  c8:	96 b3       	in	r25, 0x16	; 22
  ca:	92 2f       	mov	r25, r18
  cc:	9a 95       	dec	r25
  ce:	f1 f7       	brne	.-4      	; 0xcc <LCDBusyLoop+0x3a>
		status=status|temp;

		busy=status & 0b10000000;

		_delay_us(0.5);
		CLEAR_E();
  d0:	c6 98       	cbi	0x18, 6	; 24
  d2:	92 2f       	mov	r25, r18
  d4:	9a 95       	dec	r25
  d6:	f1 f7       	brne	.-4      	; 0xd4 <LCDBusyLoop+0x42>
		_delay_us(1);	//tEL
	}while(busy);
  d8:	87 fd       	sbrc	r24, 7
  da:	e4 cf       	rjmp	.-56     	; 0xa4 <LCDBusyLoop+0x12>

	CLEAR_RW();		//write mode
  dc:	c5 98       	cbi	0x18, 5	; 24
	//Change Port to output
	LCD_DATA_DDR|=0x0F;
  de:	87 b3       	in	r24, 0x17	; 23
  e0:	8f 60       	ori	r24, 0x0F	; 15
  e2:	87 bb       	out	0x17, r24	; 23

}
  e4:	08 95       	ret

000000e6 <LCDByte>:
#define CLEAR_RW() (LCD_RW_PORT&=(~(1<<LCD_RW_POS)))



void LCDByte(uint8_t c,uint8_t isdata)
{
  e6:	38 2f       	mov	r19, r24
uint8_t temp;

hn=c>>4;
ln=(c & 0x0F);

if(isdata==0)
  e8:	66 23       	and	r22, r22
  ea:	11 f4       	brne	.+4      	; 0xf0 <LCDByte+0xa>
	CLEAR_RS();
  ec:	c4 98       	cbi	0x18, 4	; 24
  ee:	01 c0       	rjmp	.+2      	; 0xf2 <LCDByte+0xc>
else
	SET_RS();
  f0:	c4 9a       	sbi	0x18, 4	; 24
  f2:	21 e0       	ldi	r18, 0x01	; 1
  f4:	82 2f       	mov	r24, r18
  f6:	8a 95       	dec	r24
  f8:	f1 f7       	brne	.-4      	; 0xf6 <LCDByte+0x10>

_delay_us(0.500);		//tAS

SET_E();
  fa:	c6 9a       	sbi	0x18, 6	; 24

//Send high nibble

temp=(LCD_DATA_PORT & 0XF0)|(hn);
  fc:	88 b3       	in	r24, 0x18	; 24
  fe:	93 2f       	mov	r25, r19
 100:	92 95       	swap	r25
 102:	9f 70       	andi	r25, 0x0F	; 15
 104:	80 7f       	andi	r24, 0xF0	; 240
 106:	98 2b       	or	r25, r24
LCD_DATA_PORT=temp;
 108:	98 bb       	out	0x18, r25	; 24
 10a:	82 2f       	mov	r24, r18
 10c:	8a 95       	dec	r24
 10e:	f1 f7       	brne	.-4      	; 0x10c <LCDByte+0x26>

_delay_us(1);			//tEH

//Now data lines are stable pull E low for transmission

CLEAR_E();
 110:	c6 98       	cbi	0x18, 6	; 24
 112:	82 2f       	mov	r24, r18
 114:	8a 95       	dec	r24
 116:	f1 f7       	brne	.-4      	; 0x114 <LCDByte+0x2e>

_delay_us(1);

//Send the lower nibble
SET_E();
 118:	c6 9a       	sbi	0x18, 6	; 24

temp=(LCD_DATA_PORT & 0XF0)|(ln);
 11a:	88 b3       	in	r24, 0x18	; 24
 11c:	3f 70       	andi	r19, 0x0F	; 15
 11e:	80 7f       	andi	r24, 0xF0	; 240
 120:	83 2b       	or	r24, r19

LCD_DATA_PORT=temp;
 122:	88 bb       	out	0x18, r24	; 24
 124:	82 2f       	mov	r24, r18
 126:	8a 95       	dec	r24
 128:	f1 f7       	brne	.-4      	; 0x126 <LCDByte+0x40>

_delay_us(1);			//tEH

//SEND

CLEAR_E();
 12a:	c6 98       	cbi	0x18, 6	; 24
 12c:	2a 95       	dec	r18
 12e:	f1 f7       	brne	.-4      	; 0x12c <LCDByte+0x46>

_delay_us(1);			//tEL

LCDBusyLoop();
 130:	0e 94 49 00 	call	0x92	; 0x92 <LCDBusyLoop>
}
 134:	08 95       	ret

00000136 <InitLCD>:
	LCD_DATA_DDR|=0x0F;

}

void InitLCD(uint8_t style)
{
 136:	1f 93       	push	r17
 138:	18 2f       	mov	r17, r24
    milliseconds can be achieved.
 */
void
_delay_loop_2(uint16_t __count)
{
	__asm__ volatile (
 13a:	8c e4       	ldi	r24, 0x4C	; 76
 13c:	9d e1       	ldi	r25, 0x1D	; 29
 13e:	01 97       	sbiw	r24, 0x01	; 1
 140:	f1 f7       	brne	.-4      	; 0x13e <InitLCD+0x8>
	
	//After power on Wait for LCD to Initialize
	_delay_ms(30);
	
	//Set IO Ports
	LCD_DATA_DDR|=(0x0F);
 142:	87 b3       	in	r24, 0x17	; 23
 144:	8f 60       	ori	r24, 0x0F	; 15
 146:	87 bb       	out	0x17, r24	; 23
	LCD_E_DDR|=(1<<LCD_E_POS);
 148:	be 9a       	sbi	0x17, 6	; 23
	LCD_RS_DDR|=(1<<LCD_RS_POS);
 14a:	bc 9a       	sbi	0x17, 4	; 23
	LCD_RW_DDR|=(1<<LCD_RW_POS);
 14c:	bd 9a       	sbi	0x17, 5	; 23

	LCD_DATA_PORT&=0XF0;
 14e:	88 b3       	in	r24, 0x18	; 24
 150:	80 7f       	andi	r24, 0xF0	; 240
 152:	88 bb       	out	0x18, r24	; 24
	CLEAR_E();
 154:	c6 98       	cbi	0x18, 6	; 24
	CLEAR_RW();
 156:	c5 98       	cbi	0x18, 5	; 24
	CLEAR_RS();
 158:	c4 98       	cbi	0x18, 4	; 24
    can be achieved.
*/
void
_delay_loop_1(uint8_t __count)
{
	__asm__ volatile (
 15a:	81 e0       	ldi	r24, 0x01	; 1
 15c:	98 2f       	mov	r25, r24
 15e:	9a 95       	dec	r25
 160:	f1 f7       	brne	.-4      	; 0x15e <InitLCD+0x28>

	//Set 4-bit mode
	_delay_us(0.3);	//tAS

	SET_E();
 162:	c6 9a       	sbi	0x18, 6	; 24
	LCD_DATA_PORT|=(0b00000010); //[B] To transfer 0b00100000 i was using LCD_DATA_PORT|=0b00100000
 164:	c1 9a       	sbi	0x18, 1	; 24
 166:	98 2f       	mov	r25, r24
 168:	9a 95       	dec	r25
 16a:	f1 f7       	brne	.-4      	; 0x168 <InitLCD+0x32>
	_delay_us(1);
	CLEAR_E();
 16c:	c6 98       	cbi	0x18, 6	; 24
 16e:	8a 95       	dec	r24
 170:	f1 f7       	brne	.-4      	; 0x16e <InitLCD+0x38>
	_delay_us(1);
	
	//Wait for LCD to execute the Functionset Command
	LCDBusyLoop();                                    //[B] Forgot this delay
 172:	0e 94 49 00 	call	0x92	; 0x92 <LCDBusyLoop>

	//Now the LCD is in 4-bit mode

	LCDCmd(0b00001100|style);	//Display On
 176:	60 e0       	ldi	r22, 0x00	; 0
 178:	81 2f       	mov	r24, r17
 17a:	8c 60       	ori	r24, 0x0C	; 12
 17c:	0e 94 73 00 	call	0xe6	; 0xe6 <LCDByte>
	LCDCmd(0b00101000);			//function set 4-bit,2 line 5x7 dot format
 180:	60 e0       	ldi	r22, 0x00	; 0
 182:	88 e2       	ldi	r24, 0x28	; 40
 184:	0e 94 73 00 	call	0xe6	; 0xe6 <LCDByte>
}
 188:	1f 91       	pop	r17
 18a:	08 95       	ret

0000018c <LCDWriteString>:
void LCDWriteString(const char *msg)
{
 18c:	cf 93       	push	r28
 18e:	df 93       	push	r29
 190:	ec 01       	movw	r28, r24
 192:	04 c0       	rjmp	.+8      	; 0x19c <LCDWriteString+0x10>


	*****************************************************************/
 while(*msg!='\0')
 {
	LCDData(*msg);
 194:	61 e0       	ldi	r22, 0x01	; 1
 196:	0e 94 73 00 	call	0xe6	; 0xe6 <LCDByte>
	msg++;
 19a:	21 96       	adiw	r28, 0x01	; 1
	Arguments:
	msg: a null terminated string to print


	*****************************************************************/
 while(*msg!='\0')
 19c:	88 81       	ld	r24, Y
 19e:	88 23       	and	r24, r24
 1a0:	c9 f7       	brne	.-14     	; 0x194 <LCDWriteString+0x8>
 {
	LCDData(*msg);
	msg++;
 }
}
 1a2:	df 91       	pop	r29
 1a4:	cf 91       	pop	r28
 1a6:	08 95       	ret

000001a8 <LCDWriteInt>:

void LCDWriteInt(int val,unsigned int field_length)
{
 1a8:	ef 92       	push	r14
 1aa:	ff 92       	push	r15
 1ac:	0f 93       	push	r16
 1ae:	1f 93       	push	r17
 1b0:	df 93       	push	r29
 1b2:	cf 93       	push	r28
 1b4:	00 d0       	rcall	.+0      	; 0x1b6 <LCDWriteInt+0xe>
 1b6:	00 d0       	rcall	.+0      	; 0x1b8 <LCDWriteInt+0x10>
 1b8:	0f 92       	push	r0
 1ba:	cd b7       	in	r28, 0x3d	; 61
 1bc:	de b7       	in	r29, 0x3e	; 62
 1be:	9c 01       	movw	r18, r24
 1c0:	8b 01       	movw	r16, r22
	2)unsigned int field_length :total length of field in which the value is printed
	must be between 1-5 if it is -1 the field length is no of digits in the val

	****************************************************************/

	char str[5]={0,0,0,0,0};
 1c2:	fe 01       	movw	r30, r28
 1c4:	31 96       	adiw	r30, 0x01	; 1
 1c6:	85 e0       	ldi	r24, 0x05	; 5
 1c8:	df 01       	movw	r26, r30
 1ca:	1d 92       	st	X+, r1
 1cc:	8a 95       	dec	r24
 1ce:	e9 f7       	brne	.-6      	; 0x1ca <LCDWriteInt+0x22>
 1d0:	fe 01       	movw	r30, r28
 1d2:	35 96       	adiw	r30, 0x05	; 5
 1d4:	0d c0       	rjmp	.+26     	; 0x1f0 <LCDWriteInt+0x48>
	int i=4,j=0;
	while(val)
	{
	str[i]=val%10;
 1d6:	c9 01       	movw	r24, r18
 1d8:	6a e0       	ldi	r22, 0x0A	; 10
 1da:	70 e0       	ldi	r23, 0x00	; 0
 1dc:	0e 94 34 02 	call	0x468	; 0x468 <__divmodhi4>
 1e0:	80 83       	st	Z, r24
	val=val/10;
 1e2:	c9 01       	movw	r24, r18
 1e4:	6a e0       	ldi	r22, 0x0A	; 10
 1e6:	70 e0       	ldi	r23, 0x00	; 0
 1e8:	0e 94 34 02 	call	0x468	; 0x468 <__divmodhi4>
 1ec:	9b 01       	movw	r18, r22
 1ee:	31 97       	sbiw	r30, 0x01	; 1

	****************************************************************/

	char str[5]={0,0,0,0,0};
	int i=4,j=0;
	while(val)
 1f0:	21 15       	cp	r18, r1
 1f2:	31 05       	cpc	r19, r1
 1f4:	81 f7       	brne	.-32     	; 0x1d6 <LCDWriteInt+0x2e>
	{
	str[i]=val%10;
	val=val/10;
	i--;
	}
	if(field_length==-1)
 1f6:	bf ef       	ldi	r27, 0xFF	; 255
 1f8:	0f 3f       	cpi	r16, 0xFF	; 255
 1fa:	1b 07       	cpc	r17, r27
 1fc:	79 f4       	brne	.+30     	; 0x21c <LCDWriteInt+0x74>
 1fe:	20 e0       	ldi	r18, 0x00	; 0
 200:	30 e0       	ldi	r19, 0x00	; 0
		while(str[j]==0) j++;
 202:	ae 01       	movw	r20, r28
 204:	4f 5f       	subi	r20, 0xFF	; 255
 206:	5f 4f       	sbci	r21, 0xFF	; 255
 208:	02 c0       	rjmp	.+4      	; 0x20e <LCDWriteInt+0x66>
 20a:	2f 5f       	subi	r18, 0xFF	; 255
 20c:	3f 4f       	sbci	r19, 0xFF	; 255
 20e:	fa 01       	movw	r30, r20
 210:	e2 0f       	add	r30, r18
 212:	f3 1f       	adc	r31, r19
 214:	80 81       	ld	r24, Z
 216:	88 23       	and	r24, r24
 218:	c1 f3       	breq	.-16     	; 0x20a <LCDWriteInt+0x62>
 21a:	04 c0       	rjmp	.+8      	; 0x224 <LCDWriteInt+0x7c>
	else
		j=5-field_length;
 21c:	25 e0       	ldi	r18, 0x05	; 5
 21e:	30 e0       	ldi	r19, 0x00	; 0
 220:	20 1b       	sub	r18, r16
 222:	31 0b       	sbc	r19, r17
 224:	7e 01       	movw	r14, r28
 226:	08 94       	sec
 228:	e1 1c       	adc	r14, r1
 22a:	f1 1c       	adc	r15, r1
 22c:	e2 0e       	add	r14, r18
 22e:	f3 1e       	adc	r15, r19
 230:	89 01       	movw	r16, r18
 232:	09 c0       	rjmp	.+18     	; 0x246 <LCDWriteInt+0x9e>

	if(val<0) LCDData('-');
	for(i=j;i<5;i++)
	{
	LCDData(48+str[i]);
 234:	f7 01       	movw	r30, r14
 236:	81 91       	ld	r24, Z+
 238:	7f 01       	movw	r14, r30
 23a:	61 e0       	ldi	r22, 0x01	; 1
 23c:	80 5d       	subi	r24, 0xD0	; 208
 23e:	0e 94 73 00 	call	0xe6	; 0xe6 <LCDByte>
		while(str[j]==0) j++;
	else
		j=5-field_length;

	if(val<0) LCDData('-');
	for(i=j;i<5;i++)
 242:	0f 5f       	subi	r16, 0xFF	; 255
 244:	1f 4f       	sbci	r17, 0xFF	; 255
 246:	05 30       	cpi	r16, 0x05	; 5
 248:	11 05       	cpc	r17, r1
 24a:	a4 f3       	brlt	.-24     	; 0x234 <LCDWriteInt+0x8c>
	{
	LCDData(48+str[i]);
	}
}
 24c:	0f 90       	pop	r0
 24e:	0f 90       	pop	r0
 250:	0f 90       	pop	r0
 252:	0f 90       	pop	r0
 254:	0f 90       	pop	r0
 256:	cf 91       	pop	r28
 258:	df 91       	pop	r29
 25a:	1f 91       	pop	r17
 25c:	0f 91       	pop	r16
 25e:	ff 90       	pop	r15
 260:	ef 90       	pop	r14
 262:	08 95       	ret

00000264 <LCDGotoXY>:
void LCDGotoXY(uint8_t x,uint8_t y)
{
 264:	88 32       	cpi	r24, 0x28	; 40
 266:	30 f4       	brcc	.+12     	; 0x274 <LCDGotoXY+0x10>
 if(x<40)
 {
  if(y) x|=0b01000000;
 268:	61 11       	cpse	r22, r1
 26a:	80 64       	ori	r24, 0x40	; 64
  x|=0b10000000;
  LCDCmd(x);
 26c:	60 e0       	ldi	r22, 0x00	; 0
 26e:	80 68       	ori	r24, 0x80	; 128
 270:	0e 94 73 00 	call	0xe6	; 0xe6 <LCDByte>
 274:	08 95       	ret

00000276 <adc_init>:
#include<util/delay.h>		//header file for genarating time delay
#include<avr/interrupt.h>			//header file for using interrupt service routins
unsigned int adcdata,adcdata1;

 void adc_init()
 {
 276:	87 e8       	ldi	r24, 0x87	; 135
 278:	86 b9       	out	0x06, r24	; 6
  ADCSRA=0X87;						//ADC enable, ADC interrupt enable, set prescaller to 64
  		
 }
 27a:	08 95       	ret

0000027c <getdata>:
 unsigned char getdata(unsigned char chno)	
  {
 27c:	90 e6       	ldi	r25, 0x60	; 96
 27e:	97 b9       	out	0x07, r25	; 7
    ADMUX=0X60;						//right align the ADC result
    ADMUX|=chno;					//select the ADC channel
 280:	97 b1       	in	r25, 0x07	; 7
 282:	98 2b       	or	r25, r24
 284:	97 b9       	out	0x07, r25	; 7
    ADCSRA|=0X40;					//start ADC convertion
 286:	36 9a       	sbi	0x06, 6	; 6
    milliseconds can be achieved.
 */
void
_delay_loop_2(uint16_t __count)
{
	__asm__ volatile (
 288:	84 ec       	ldi	r24, 0xC4	; 196
 28a:	99 e0       	ldi	r25, 0x09	; 9
 28c:	01 97       	sbiw	r24, 0x01	; 1
 28e:	f1 f7       	brne	.-4      	; 0x28c <getdata+0x10>
    _delay_ms(10);					//give some time delay to complit the aDC convertion
	return ADCH;
 290:	85 b1       	in	r24, 0x05	; 5
  }
 292:	08 95       	ret

00000294 <main>:
#include <avr/io.h>
#include <util/delay.h>
#include "lcd.c"
#include "adc.h"
void main()
{
 294:	4f 92       	push	r4
 296:	5f 92       	push	r5
 298:	6f 92       	push	r6
 29a:	7f 92       	push	r7
 29c:	8f 92       	push	r8
 29e:	9f 92       	push	r9
 2a0:	af 92       	push	r10
 2a2:	bf 92       	push	r11
 2a4:	cf 92       	push	r12
 2a6:	df 92       	push	r13
 2a8:	ef 92       	push	r14
 2aa:	ff 92       	push	r15
 2ac:	1f 93       	push	r17
 2ae:	cf 93       	push	r28
 2b0:	df 93       	push	r29
DDRC=0xff;
 2b2:	8f ef       	ldi	r24, 0xFF	; 255
 2b4:	84 bb       	out	0x14, r24	; 20
InitLCD(LS_ULINE);
 2b6:	82 e0       	ldi	r24, 0x02	; 2
 2b8:	0e 94 9b 00 	call	0x136	; 0x136 <InitLCD>
LCDWriteString("Hello World");
 2bc:	80 e6       	ldi	r24, 0x60	; 96
 2be:	90 e0       	ldi	r25, 0x00	; 0
 2c0:	0e 94 c6 00 	call	0x18c	; 0x18c <LCDWriteString>
#include<avr/interrupt.h>			//header file for using interrupt service routins
unsigned int adcdata,adcdata1;

 void adc_init()
 {
  ADCSRA=0X87;						//ADC enable, ADC interrupt enable, set prescaller to 64
 2c4:	87 e8       	ldi	r24, 0x87	; 135
 2c6:	86 b9       	out	0x06, r24	; 6
adc_init();
PORTC=0x00;
 2c8:	15 ba       	out	0x15, r1	; 21
 2ca:	44 24       	eor	r4, r4
 2cc:	55 24       	eor	r5, r5
 2ce:	66 24       	eor	r6, r6
 2d0:	77 24       	eor	r7, r7
 2d2:	88 24       	eor	r8, r8
 2d4:	99 24       	eor	r9, r9
 2d6:	2f ef       	ldi	r18, 0xFF	; 255
 2d8:	a2 2e       	mov	r10, r18
 2da:	b1 2c       	mov	r11, r1
 2dc:	9f ef       	ldi	r25, 0xFF	; 255
 2de:	c9 2e       	mov	r12, r25
 2e0:	d1 2c       	mov	r13, r1
 2e2:	8f ef       	ldi	r24, 0xFF	; 255
 2e4:	e8 2e       	mov	r14, r24
 2e6:	f1 2c       	mov	r15, r1
  		
 }
 unsigned char getdata(unsigned char chno)	
  {
    ADMUX=0X60;						//right align the ADC result
 2e8:	10 e6       	ldi	r17, 0x60	; 96
 2ea:	c4 ec       	ldi	r28, 0xC4	; 196
 2ec:	d9 e0       	ldi	r29, 0x09	; 9
zl=255;
int k;
while(1)
{

LCDClear();
 2ee:	60 e0       	ldi	r22, 0x00	; 0
 2f0:	81 e0       	ldi	r24, 0x01	; 1
 2f2:	0e 94 73 00 	call	0xe6	; 0xe6 <LCDByte>

LCDWriteString("x=");
 2f6:	8c e6       	ldi	r24, 0x6C	; 108
 2f8:	90 e0       	ldi	r25, 0x00	; 0
 2fa:	0e 94 c6 00 	call	0x18c	; 0x18c <LCDWriteString>
LCDWriteInt(x,3);
 2fe:	63 e0       	ldi	r22, 0x03	; 3
 300:	70 e0       	ldi	r23, 0x00	; 0
 302:	c2 01       	movw	r24, r4
 304:	0e 94 d4 00 	call	0x1a8	; 0x1a8 <LCDWriteInt>
LCDWriteString("y=");
 308:	8f e6       	ldi	r24, 0x6F	; 111
 30a:	90 e0       	ldi	r25, 0x00	; 0
 30c:	0e 94 c6 00 	call	0x18c	; 0x18c <LCDWriteString>
LCDWriteInt(y,3);
 310:	63 e0       	ldi	r22, 0x03	; 3
 312:	70 e0       	ldi	r23, 0x00	; 0
 314:	c3 01       	movw	r24, r6
 316:	0e 94 d4 00 	call	0x1a8	; 0x1a8 <LCDWriteInt>
LCDWriteString("z=");
 31a:	82 e7       	ldi	r24, 0x72	; 114
 31c:	90 e0       	ldi	r25, 0x00	; 0
 31e:	0e 94 c6 00 	call	0x18c	; 0x18c <LCDWriteString>
LCDWriteInt(z,3);
 322:	63 e0       	ldi	r22, 0x03	; 3
 324:	70 e0       	ldi	r23, 0x00	; 0
 326:	c4 01       	movw	r24, r8
 328:	0e 94 d4 00 	call	0x1a8	; 0x1a8 <LCDWriteInt>

LCDWriteString("x=");
 32c:	8c e6       	ldi	r24, 0x6C	; 108
 32e:	90 e0       	ldi	r25, 0x00	; 0
 330:	0e 94 c6 00 	call	0x18c	; 0x18c <LCDWriteString>
LCDWriteInt(xl,3);
 334:	63 e0       	ldi	r22, 0x03	; 3
 336:	70 e0       	ldi	r23, 0x00	; 0
 338:	c5 01       	movw	r24, r10
 33a:	0e 94 d4 00 	call	0x1a8	; 0x1a8 <LCDWriteInt>
LCDWriteString("y=");
 33e:	8f e6       	ldi	r24, 0x6F	; 111
 340:	90 e0       	ldi	r25, 0x00	; 0
 342:	0e 94 c6 00 	call	0x18c	; 0x18c <LCDWriteString>
LCDWriteInt(yl,3);
 346:	63 e0       	ldi	r22, 0x03	; 3
 348:	70 e0       	ldi	r23, 0x00	; 0
 34a:	c6 01       	movw	r24, r12
 34c:	0e 94 d4 00 	call	0x1a8	; 0x1a8 <LCDWriteInt>
LCDWriteString("z=");
 350:	82 e7       	ldi	r24, 0x72	; 114
 352:	90 e0       	ldi	r25, 0x00	; 0
 354:	0e 94 c6 00 	call	0x18c	; 0x18c <LCDWriteString>
LCDWriteInt(zl,3);
 358:	63 e0       	ldi	r22, 0x03	; 3
 35a:	70 e0       	ldi	r23, 0x00	; 0
 35c:	c7 01       	movw	r24, r14
 35e:	0e 94 d4 00 	call	0x1a8	; 0x1a8 <LCDWriteInt>
 362:	20 ed       	ldi	r18, 0xD0	; 208
 364:	37 e0       	ldi	r19, 0x07	; 7
 366:	17 b9       	out	0x07, r17	; 7
    ADMUX|=chno;					//select the ADC channel
 368:	87 b1       	in	r24, 0x07	; 7
 36a:	87 b9       	out	0x07, r24	; 7
    ADCSRA|=0X40;					//start ADC convertion
 36c:	36 9a       	sbi	0x06, 6	; 6
 36e:	ce 01       	movw	r24, r28
 370:	01 97       	sbiw	r24, 0x01	; 1
 372:	f1 f7       	brne	.-4      	; 0x370 <main+0xdc>
    _delay_ms(10);					//give some time delay to complit the aDC convertion
	return ADCH;
 374:	85 b1       	in	r24, 0x05	; 5

k=2000;
while(k)
{if (getdata(0)>x)
 376:	90 e0       	ldi	r25, 0x00	; 0
 378:	48 16       	cp	r4, r24
 37a:	59 06       	cpc	r5, r25
 37c:	54 f4       	brge	.+20     	; 0x392 <main+0xfe>
  ADCSRA=0X87;						//ADC enable, ADC interrupt enable, set prescaller to 64
  		
 }
 unsigned char getdata(unsigned char chno)	
  {
    ADMUX=0X60;						//right align the ADC result
 37e:	17 b9       	out	0x07, r17	; 7
    ADMUX|=chno;					//select the ADC channel
 380:	87 b1       	in	r24, 0x07	; 7
 382:	87 b9       	out	0x07, r24	; 7
    ADCSRA|=0X40;					//start ADC convertion
 384:	36 9a       	sbi	0x06, 6	; 6
 386:	ce 01       	movw	r24, r28
 388:	01 97       	sbiw	r24, 0x01	; 1
 38a:	f1 f7       	brne	.-4      	; 0x388 <main+0xf4>
    _delay_ms(10);					//give some time delay to complit the aDC convertion
	return ADCH;
 38c:	85 b1       	in	r24, 0x05	; 5
	  {
  		x=getdata(0);
 38e:	48 2e       	mov	r4, r24
 390:	55 24       	eor	r5, r5
  ADCSRA=0X87;						//ADC enable, ADC interrupt enable, set prescaller to 64
  		
 }
 unsigned char getdata(unsigned char chno)	
  {
    ADMUX=0X60;						//right align the ADC result
 392:	17 b9       	out	0x07, r17	; 7
    ADMUX|=chno;					//select the ADC channel
 394:	38 9a       	sbi	0x07, 0	; 7
    ADCSRA|=0X40;					//start ADC convertion
 396:	36 9a       	sbi	0x06, 6	; 6
 398:	ce 01       	movw	r24, r28
 39a:	01 97       	sbiw	r24, 0x01	; 1
 39c:	f1 f7       	brne	.-4      	; 0x39a <main+0x106>
    _delay_ms(10);					//give some time delay to complit the aDC convertion
	return ADCH;
 39e:	85 b1       	in	r24, 0x05	; 5
	  }
 if (getdata(1)>y)
 3a0:	90 e0       	ldi	r25, 0x00	; 0
 3a2:	68 16       	cp	r6, r24
 3a4:	79 06       	cpc	r7, r25
 3a6:	4c f4       	brge	.+18     	; 0x3ba <main+0x126>
  ADCSRA=0X87;						//ADC enable, ADC interrupt enable, set prescaller to 64
  		
 }
 unsigned char getdata(unsigned char chno)	
  {
    ADMUX=0X60;						//right align the ADC result
 3a8:	17 b9       	out	0x07, r17	; 7
    ADMUX|=chno;					//select the ADC channel
 3aa:	38 9a       	sbi	0x07, 0	; 7
    ADCSRA|=0X40;					//start ADC convertion
 3ac:	36 9a       	sbi	0x06, 6	; 6
 3ae:	ce 01       	movw	r24, r28
 3b0:	01 97       	sbiw	r24, 0x01	; 1
 3b2:	f1 f7       	brne	.-4      	; 0x3b0 <main+0x11c>
    _delay_ms(10);					//give some time delay to complit the aDC convertion
	return ADCH;
 3b4:	85 b1       	in	r24, 0x05	; 5
 	{
		y=getdata(1);
 3b6:	68 2e       	mov	r6, r24
 3b8:	77 24       	eor	r7, r7
  ADCSRA=0X87;						//ADC enable, ADC interrupt enable, set prescaller to 64
  		
 }
 unsigned char getdata(unsigned char chno)	
  {
    ADMUX=0X60;						//right align the ADC result
 3ba:	17 b9       	out	0x07, r17	; 7
    ADMUX|=chno;					//select the ADC channel
 3bc:	39 9a       	sbi	0x07, 1	; 7
    ADCSRA|=0X40;					//start ADC convertion
 3be:	36 9a       	sbi	0x06, 6	; 6
 3c0:	ce 01       	movw	r24, r28
 3c2:	01 97       	sbiw	r24, 0x01	; 1
 3c4:	f1 f7       	brne	.-4      	; 0x3c2 <main+0x12e>
    _delay_ms(10);					//give some time delay to complit the aDC convertion
	return ADCH;
 3c6:	85 b1       	in	r24, 0x05	; 5
	}
 if (getdata(2)>z)
 3c8:	90 e0       	ldi	r25, 0x00	; 0
 3ca:	88 16       	cp	r8, r24
 3cc:	99 06       	cpc	r9, r25
 3ce:	4c f4       	brge	.+18     	; 0x3e2 <main+0x14e>
  ADCSRA=0X87;						//ADC enable, ADC interrupt enable, set prescaller to 64
  		
 }
 unsigned char getdata(unsigned char chno)	
  {
    ADMUX=0X60;						//right align the ADC result
 3d0:	17 b9       	out	0x07, r17	; 7
    ADMUX|=chno;					//select the ADC channel
 3d2:	39 9a       	sbi	0x07, 1	; 7
    ADCSRA|=0X40;					//start ADC convertion
 3d4:	36 9a       	sbi	0x06, 6	; 6
 3d6:	ce 01       	movw	r24, r28
 3d8:	01 97       	sbiw	r24, 0x01	; 1
 3da:	f1 f7       	brne	.-4      	; 0x3d8 <main+0x144>
    _delay_ms(10);					//give some time delay to complit the aDC convertion
	return ADCH;
 3dc:	85 b1       	in	r24, 0x05	; 5
 	{
		z=getdata(2);
 3de:	88 2e       	mov	r8, r24
 3e0:	99 24       	eor	r9, r9
  ADCSRA=0X87;						//ADC enable, ADC interrupt enable, set prescaller to 64
  		
 }
 unsigned char getdata(unsigned char chno)	
  {
    ADMUX=0X60;						//right align the ADC result
 3e2:	17 b9       	out	0x07, r17	; 7
    ADMUX|=chno;					//select the ADC channel
 3e4:	87 b1       	in	r24, 0x07	; 7
 3e6:	87 b9       	out	0x07, r24	; 7
    ADCSRA|=0X40;					//start ADC convertion
 3e8:	36 9a       	sbi	0x06, 6	; 6
 3ea:	ce 01       	movw	r24, r28
 3ec:	01 97       	sbiw	r24, 0x01	; 1
 3ee:	f1 f7       	brne	.-4      	; 0x3ec <main+0x158>
    _delay_ms(10);					//give some time delay to complit the aDC convertion
	return ADCH;
 3f0:	85 b1       	in	r24, 0x05	; 5
	}
 if (getdata(0)<xl)
 3f2:	90 e0       	ldi	r25, 0x00	; 0
 3f4:	8a 15       	cp	r24, r10
 3f6:	9b 05       	cpc	r25, r11
 3f8:	54 f4       	brge	.+20     	; 0x40e <main+0x17a>
  ADCSRA=0X87;						//ADC enable, ADC interrupt enable, set prescaller to 64
  		
 }
 unsigned char getdata(unsigned char chno)	
  {
    ADMUX=0X60;						//right align the ADC result
 3fa:	17 b9       	out	0x07, r17	; 7
    ADMUX|=chno;					//select the ADC channel
 3fc:	87 b1       	in	r24, 0x07	; 7
 3fe:	87 b9       	out	0x07, r24	; 7
    ADCSRA|=0X40;					//start ADC convertion
 400:	36 9a       	sbi	0x06, 6	; 6
 402:	ce 01       	movw	r24, r28
 404:	01 97       	sbiw	r24, 0x01	; 1
 406:	f1 f7       	brne	.-4      	; 0x404 <main+0x170>
    _delay_ms(10);					//give some time delay to complit the aDC convertion
	return ADCH;
 408:	85 b1       	in	r24, 0x05	; 5
 	{
		xl=getdata(0);
 40a:	a8 2e       	mov	r10, r24
 40c:	bb 24       	eor	r11, r11
  ADCSRA=0X87;						//ADC enable, ADC interrupt enable, set prescaller to 64
  		
 }
 unsigned char getdata(unsigned char chno)	
  {
    ADMUX=0X60;						//right align the ADC result
 40e:	17 b9       	out	0x07, r17	; 7
    ADMUX|=chno;					//select the ADC channel
 410:	38 9a       	sbi	0x07, 0	; 7
    ADCSRA|=0X40;					//start ADC convertion
 412:	36 9a       	sbi	0x06, 6	; 6
 414:	ce 01       	movw	r24, r28
 416:	01 97       	sbiw	r24, 0x01	; 1
 418:	f1 f7       	brne	.-4      	; 0x416 <main+0x182>
    _delay_ms(10);					//give some time delay to complit the aDC convertion
	return ADCH;
 41a:	85 b1       	in	r24, 0x05	; 5
	}
 if (getdata(1)<yl)
 41c:	90 e0       	ldi	r25, 0x00	; 0
 41e:	8c 15       	cp	r24, r12
 420:	9d 05       	cpc	r25, r13
 422:	4c f4       	brge	.+18     	; 0x436 <main+0x1a2>
  ADCSRA=0X87;						//ADC enable, ADC interrupt enable, set prescaller to 64
  		
 }
 unsigned char getdata(unsigned char chno)	
  {
    ADMUX=0X60;						//right align the ADC result
 424:	17 b9       	out	0x07, r17	; 7
    ADMUX|=chno;					//select the ADC channel
 426:	38 9a       	sbi	0x07, 0	; 7
    ADCSRA|=0X40;					//start ADC convertion
 428:	36 9a       	sbi	0x06, 6	; 6
 42a:	ce 01       	movw	r24, r28
 42c:	01 97       	sbiw	r24, 0x01	; 1
 42e:	f1 f7       	brne	.-4      	; 0x42c <main+0x198>
    _delay_ms(10);					//give some time delay to complit the aDC convertion
	return ADCH;
 430:	85 b1       	in	r24, 0x05	; 5
 	{
		yl=getdata(1);
 432:	c8 2e       	mov	r12, r24
 434:	dd 24       	eor	r13, r13
  ADCSRA=0X87;						//ADC enable, ADC interrupt enable, set prescaller to 64
  		
 }
 unsigned char getdata(unsigned char chno)	
  {
    ADMUX=0X60;						//right align the ADC result
 436:	17 b9       	out	0x07, r17	; 7
    ADMUX|=chno;					//select the ADC channel
 438:	39 9a       	sbi	0x07, 1	; 7
    ADCSRA|=0X40;					//start ADC convertion
 43a:	36 9a       	sbi	0x06, 6	; 6
 43c:	ce 01       	movw	r24, r28
 43e:	01 97       	sbiw	r24, 0x01	; 1
 440:	f1 f7       	brne	.-4      	; 0x43e <main+0x1aa>
    _delay_ms(10);					//give some time delay to complit the aDC convertion
	return ADCH;
 442:	85 b1       	in	r24, 0x05	; 5
	}
 if (getdata(2)<zl)
 444:	90 e0       	ldi	r25, 0x00	; 0
 446:	8e 15       	cp	r24, r14
 448:	9f 05       	cpc	r25, r15
 44a:	4c f4       	brge	.+18     	; 0x45e <main+0x1ca>
  ADCSRA=0X87;						//ADC enable, ADC interrupt enable, set prescaller to 64
  		
 }
 unsigned char getdata(unsigned char chno)	
  {
    ADMUX=0X60;						//right align the ADC result
 44c:	17 b9       	out	0x07, r17	; 7
    ADMUX|=chno;					//select the ADC channel
 44e:	39 9a       	sbi	0x07, 1	; 7
    ADCSRA|=0X40;					//start ADC convertion
 450:	36 9a       	sbi	0x06, 6	; 6
 452:	ce 01       	movw	r24, r28
 454:	01 97       	sbiw	r24, 0x01	; 1
 456:	f1 f7       	brne	.-4      	; 0x454 <main+0x1c0>
    _delay_ms(10);					//give some time delay to complit the aDC convertion
	return ADCH;
 458:	85 b1       	in	r24, 0x05	; 5
  	{
		zl=getdata(2);
 45a:	e8 2e       	mov	r14, r24
 45c:	ff 24       	eor	r15, r15
	}
	k--;
 45e:	21 50       	subi	r18, 0x01	; 1
 460:	30 40       	sbci	r19, 0x00	; 0
LCDWriteInt(yl,3);
LCDWriteString("z=");
LCDWriteInt(zl,3);

k=2000;
while(k)
 462:	09 f0       	breq	.+2      	; 0x466 <__stack+0x7>
 464:	80 cf       	rjmp	.-256    	; 0x366 <main+0xd2>
 466:	43 cf       	rjmp	.-378    	; 0x2ee <main+0x5a>

00000468 <__divmodhi4>:
 468:	97 fb       	bst	r25, 7
 46a:	09 2e       	mov	r0, r25
 46c:	07 26       	eor	r0, r23
 46e:	0a d0       	rcall	.+20     	; 0x484 <__divmodhi4_neg1>
 470:	77 fd       	sbrc	r23, 7
 472:	04 d0       	rcall	.+8      	; 0x47c <__divmodhi4_neg2>
 474:	0c d0       	rcall	.+24     	; 0x48e <__udivmodhi4>
 476:	06 d0       	rcall	.+12     	; 0x484 <__divmodhi4_neg1>
 478:	00 20       	and	r0, r0
 47a:	1a f4       	brpl	.+6      	; 0x482 <__divmodhi4_exit>

0000047c <__divmodhi4_neg2>:
 47c:	70 95       	com	r23
 47e:	61 95       	neg	r22
 480:	7f 4f       	sbci	r23, 0xFF	; 255

00000482 <__divmodhi4_exit>:
 482:	08 95       	ret

00000484 <__divmodhi4_neg1>:
 484:	f6 f7       	brtc	.-4      	; 0x482 <__divmodhi4_exit>
 486:	90 95       	com	r25
 488:	81 95       	neg	r24
 48a:	9f 4f       	sbci	r25, 0xFF	; 255
 48c:	08 95       	ret

0000048e <__udivmodhi4>:
 48e:	aa 1b       	sub	r26, r26
 490:	bb 1b       	sub	r27, r27
 492:	51 e1       	ldi	r21, 0x11	; 17
 494:	07 c0       	rjmp	.+14     	; 0x4a4 <__udivmodhi4_ep>

00000496 <__udivmodhi4_loop>:
 496:	aa 1f       	adc	r26, r26
 498:	bb 1f       	adc	r27, r27
 49a:	a6 17       	cp	r26, r22
 49c:	b7 07       	cpc	r27, r23
 49e:	10 f0       	brcs	.+4      	; 0x4a4 <__udivmodhi4_ep>
 4a0:	a6 1b       	sub	r26, r22
 4a2:	b7 0b       	sbc	r27, r23

000004a4 <__udivmodhi4_ep>:
 4a4:	88 1f       	adc	r24, r24
 4a6:	99 1f       	adc	r25, r25
 4a8:	5a 95       	dec	r21
 4aa:	a9 f7       	brne	.-22     	; 0x496 <__udivmodhi4_loop>
 4ac:	80 95       	com	r24
 4ae:	90 95       	com	r25
 4b0:	bc 01       	movw	r22, r24
 4b2:	cd 01       	movw	r24, r26
 4b4:	08 95       	ret

000004b6 <_exit>:
 4b6:	f8 94       	cli

000004b8 <__stop_program>:
 4b8:	ff cf       	rjmp	.-2      	; 0x4b8 <__stop_program>
